target datalayout = "e-m:e-p270:32:32-p271:32:32-p272:64:64-i64:64-i128:128-f80:128-n8:16:32:64-S128"
target triple = "x86_64-pc-linux-gnu"

@__const.ma_get_bytes_per_sample.sizes = private unnamed_addr constant [6 x i32] [i32 0, i32 1, i32 2, i32 3, i32 4, i32 4], align 16

; Function Attrs: alwaysinline nounwind uwtable
define internal void @ma_zero_memory_default(ptr noundef %0, i64 noundef %1) #7 {
  %3 = alloca ptr, align 8
  %4 = alloca i64, align 8
  store ptr %0, ptr %3, align 8
  store i64 %1, ptr %4, align 8
  %5 = load ptr, ptr %3, align 8
  %6 = icmp eq ptr %5, null
  br i1 %6, label %7, label %8

7:                                                ; preds = %2
  br label %14

8:                                                ; preds = %2
  %9 = load i64, ptr %4, align 8
  %10 = icmp ugt i64 %9, 0
  br i1 %10, label %11, label %14

11:                                               ; preds = %8
  %12 = load ptr, ptr %3, align 8
  %13 = load i64, ptr %4, align 8
  call void @llvm.memset.p0.i64(ptr align 1 %12, i8 0, i64 %13, i1 false)
  br label %14

14:                                               ; preds = %7, %11, %8
  ret void
}

; Function Attrs: nounwind uwtable
define hidden i32 @ma_get_bytes_per_sample(i32 noundef %0) #0 {
  %2 = alloca i32, align 4
  %3 = alloca [6 x i32], align 16
  store i32 %0, ptr %2, align 4
  call void @llvm.lifetime.start.p0(i64 24, ptr %3) #21
  call void @llvm.memcpy.p0.p0.i64(ptr align 16 %3, ptr align 16 @__const.ma_get_bytes_per_sample.sizes, i64 24, i1 false)
  %4 = load i32, ptr %2, align 4
  %5 = zext i32 %4 to i64
  %6 = getelementptr inbounds nuw [6 x i32], ptr %3, i64 0, i64 %5
  %7 = load i32, ptr %6, align 4
  call void @llvm.lifetime.end.p0(i64 24, ptr %3) #21
  ret i32 %7
}

; Function Attrs: alwaysinline nounwind uwtable
define internal void @ma_zero_memory_64(ptr noundef %0, i64 noundef %1) #7 {
  %3 = alloca ptr, align 8
  %4 = alloca i64, align 8
  %5 = alloca i64, align 8
  store ptr %0, ptr %3, align 8
  store i64 %1, ptr %4, align 8
  br label %6

6:                                                ; preds = %14, %2
  %7 = load i64, ptr %4, align 8
  %8 = icmp ugt i64 %7, 0
  br i1 %8, label %9, label %23

9:                                                ; preds = %6
  call void @llvm.lifetime.start.p0(i64 8, ptr %5) #21
  %10 = load i64, ptr %4, align 8
  store i64 %10, ptr %5, align 8
  %11 = load i64, ptr %5, align 8
  %12 = icmp ugt i64 %11, 4294967295
  br i1 %12, label %13, label %14

13:                                               ; preds = %9
  store i64 4294967295, ptr %5, align 8
  br label %14

14:                                               ; preds = %13, %9
  %15 = load ptr, ptr %3, align 8
  %16 = load i64, ptr %5, align 8
  call void @ma_zero_memory_default(ptr noundef %15, i64 noundef %16)
  %17 = load i64, ptr %5, align 8
  %18 = load i64, ptr %4, align 8
  %19 = sub i64 %18, %17
  store i64 %19, ptr %4, align 8
  %20 = load ptr, ptr %3, align 8
  %21 = load i64, ptr %5, align 8
  %22 = getelementptr inbounds nuw i8, ptr %20, i64 %21
  store ptr %22, ptr %3, align 8
  call void @llvm.lifetime.end.p0(i64 8, ptr %5) #21
  br label %6

23:                                               ; preds = %6
  ret void
}

; Function Attrs: alwaysinline nounwind uwtable
define internal i32 @ma_get_bytes_per_frame(i32 noundef %0, i32 noundef %1) #7 {
  %3 = alloca i32, align 4
  %4 = alloca i32, align 4
  store i32 %0, ptr %3, align 4
  store i32 %1, ptr %4, align 4
  %5 = load i32, ptr %3, align 4
  %6 = call i32 @ma_get_bytes_per_sample(i32 noundef %5)
  %7 = load i32, ptr %4, align 4
  %8 = mul i32 %6, %7
  ret i32 %8
}

; Function Attrs: nounwind uwtable
define hidden void @ma_silence_pcm_frames(ptr noundef %0, i64 noundef %1, i32 noundef %2, i32 noundef %3) #0 {
  %5 = alloca ptr, align 8
  %6 = alloca i64, align 8
  %7 = alloca i32, align 4
  %8 = alloca i32, align 4
  %9 = alloca i64, align 8
  %10 = alloca i64, align 8
  store ptr %0, ptr %5, align 8
  store i64 %1, ptr %6, align 8
  store i32 %2, ptr %7, align 4
  store i32 %3, ptr %8, align 4
  %11 = load i32, ptr %7, align 4
  %12 = icmp eq i32 %11, 1
  br i1 %12, label %13, label %30

13:                                               ; preds = %4
  call void @llvm.lifetime.start.p0(i64 8, ptr %9) #21
  %14 = load i64, ptr %6, align 8
  %15 = load i32, ptr %8, align 4
  %16 = zext i32 %15 to i64
  %17 = mul i64 %14, %16
  store i64 %17, ptr %9, align 8
  call void @llvm.lifetime.start.p0(i64 8, ptr %10) #21
  store i64 0, ptr %10, align 8
  br label %18

18:                                               ; preds = %26, %13
  %19 = load i64, ptr %10, align 8
  %20 = load i64, ptr %9, align 8
  %21 = icmp ult i64 %19, %20
  br i1 %21, label %22, label %29

22:                                               ; preds = %18
  %23 = load ptr, ptr %5, align 8
  %24 = load i64, ptr %10, align 8
  %25 = getelementptr inbounds nuw i8, ptr %23, i64 %24
  store i8 -128, ptr %25, align 1
  br label %26

26:                                               ; preds = %22
  %27 = load i64, ptr %10, align 8
  %28 = add i64 %27, 1
  store i64 %28, ptr %10, align 8
  br label %18

29:                                               ; preds = %18
  call void @llvm.lifetime.end.p0(i64 8, ptr %10) #21
  call void @llvm.lifetime.end.p0(i64 8, ptr %9) #21
  br label %38

30:                                               ; preds = %4
  %31 = load ptr, ptr %5, align 8
  %32 = load i64, ptr %6, align 8
  %33 = load i32, ptr %7, align 4
  %34 = load i32, ptr %8, align 4
  %35 = call i32 @ma_get_bytes_per_frame(i32 noundef %33, i32 noundef %34)
  %36 = zext i32 %35 to i64
  %37 = mul i64 %32, %36
  call void @ma_zero_memory_64(ptr noundef %31, i64 noundef %37)
  br label %38

38:                                               ; preds = %30, %29
  ret void
}