; Function Attrs: nofree norecurse nosync nounwind memory(argmem: write) uwtable
define hidden void @ma_silence_pcm_frames(ptr noundef writeonly captures(address) %0, i64 noundef %1, i32 noundef %2, i32 noundef %3) local_unnamed_addr #21 {
  %5 = icmp eq i32 %2, 1
  br i1 %5, label %6, label %9

6:                                                ; preds = %4
  %7 = zext i32 %3 to i64
  %8 = mul i64 %1, %7
  %.not18 = icmp eq i64 %8, 0
  br i1 %.not18, label %ma_zero_memory_64.exit, label %.lr.ph17.preheader

.lr.ph17.preheader:                               ; preds = %6
  tail call void @llvm.memset.p0.i64(ptr align 1 %0, i8 -128, i64 %8, i1 false)
  br label %ma_zero_memory_64.exit

9:                                                ; preds = %4
  %10 = zext i32 %2 to i64
  %11 = getelementptr inbounds nuw [6 x i32], ptr @__const.ma_get_bytes_per_sample.sizes, i64 0, i64 %10
  %12 = load i32, ptr %11, align 4
  %13 = mul i32 %12, %3
  %14 = zext i32 %13 to i64
  %15 = mul i64 %1, %14
  %.not.i13 = icmp eq i64 %15, 0
  br i1 %.not.i13, label %ma_zero_memory_64.exit, label %.lr.ph

.lr.ph:                                           ; preds = %9, %ma_zero_memory_default.exit.i
  %.0.i15 = phi ptr [ %18, %ma_zero_memory_default.exit.i ], [ %0, %9 ]
  %.08.i14 = phi i64 [ %17, %ma_zero_memory_default.exit.i ], [ %15, %9 ]
  %spec.store.select.i = tail call i64 @llvm.umin.i64(i64 %.08.i14, i64 4294967295)
  %.not = icmp eq ptr %.0.i15, null
  br i1 %.not, label %ma_zero_memory_default.exit.i, label %16

16:                                               ; preds = %.lr.ph
  tail call void @llvm.memset.p0.i64(ptr noundef nonnull align 1 dereferenceable(1) %.0.i15, i8 0, i64 %spec.store.select.i, i1 false)
  br label %ma_zero_memory_default.exit.i

ma_zero_memory_default.exit.i:                    ; preds = %16, %.lr.ph
  %17 = sub i64 %.08.i14, %spec.store.select.i
  %18 = getelementptr inbounds nuw i8, ptr %.0.i15, i64 %spec.store.select.i
  %.not.i = icmp eq i64 %17, 0
  br i1 %.not.i, label %ma_zero_memory_64.exit, label %.lr.ph

ma_zero_memory_64.exit:                           ; preds = %ma_zero_memory_default.exit.i, %.lr.ph17.preheader, %9, %6
  ret void
}